; Function Attrs: mustprogress uwtable
define hidden void @_ZN5osgeo4proj9operation21GeneralParameterValueC2ERKS2_(ptr noundef nonnull align 8 dereferenceable(48) %0, ptr noundef nonnull readnone align 8 captures(none) dereferenceable(48) %1) unnamed_addr #0 align 2 personality ptr @__gxx_personality_v0 {
  tail call void @_ZN5osgeo4proj4util10BaseObjectC2Ev(ptr noundef nonnull align 8 dereferenceable(16) %0)
  %3 = getelementptr inbounds nuw i8, ptr %0, i64 16
  %4 = getelementptr inbounds nuw i8, ptr %0, i64 24
  %5 = getelementptr inbounds nuw i8, ptr %0, i64 32
  store ptr getelementptr inbounds nuw inrange(-16, 48) (i8, ptr @_ZTVN5osgeo4proj9operation21GeneralParameterValueE, i64 16), ptr %0, align 8, !tbaa !3
  store ptr getelementptr inbounds nuw inrange(-16, 24) (i8, ptr @_ZTVN5osgeo4proj9operation21GeneralParameterValueE, i64 80), ptr %3, align 8, !tbaa !3
  store ptr getelementptr inbounds nuw inrange(-16, 24) (i8, ptr @_ZTVN5osgeo4proj9operation21GeneralParameterValueE, i64 120), ptr %4, align 8, !tbaa !3
  store ptr getelementptr inbounds nuw inrange(-16, 24) (i8, ptr @_ZTVN5osgeo4proj9operation21GeneralParameterValueE, i64 160), ptr %5, align 8, !tbaa !3
  %6 = getelementptr inbounds nuw i8, ptr %0, i64 40
  store ptr null, ptr %6, align 8, !tbaa !257
  ret void
}